target datalayout = "e-m:e-p270:32:32-p271:32:32-p272:64:64-i64:64-i128:128-f80:128-n8:16:32:64-S128"
target triple = "x86_64-pc-linux-gnu"

%"class.cv::saliency::Saliency" = type { %"class.cv::Algorithm", %"class.std::__cxx11::basic_string" }
%"class.cv::Algorithm" = type { ptr }
%"class.std::__cxx11::basic_string" = type { %"struct.std::__cxx11::basic_string<char>::_Alloc_hider", i64, %union.anon }
%"struct.std::__cxx11::basic_string<char>::_Alloc_hider" = type { ptr }
%union.anon = type { i64, [8 x i8] }
%"class.cv::saliency::StaticSaliencySpectralResidual" = type { %"class.cv::saliency::StaticSaliency.base", i32, i32, %"class.cv::saliency::Saliency" }
%"class.cv::saliency::StaticSaliency.base" = type { %"class.cv::Algorithm" }

@.str = private unnamed_addr constant [18 x i8] c"SPECTRAL_RESIDUAL\00", align 1

; Function Attrs: mustprogress nounwind uwtable
define linkonce_odr hidden void @_ZN2cv8saliency14StaticSaliencyD2Ev(ptr noundef nonnull align 8 dereferenceable(8) %0, ptr noundef %1) unnamed_addr #5 comdat align 2 {
  %3 = alloca ptr, align 8
  %4 = alloca ptr, align 8
  store ptr %0, ptr %3, align 8
  store ptr %1, ptr %4, align 8
  ret void
}

; Function Attrs: mustprogress nounwind uwtable
define linkonce_odr hidden void @_ZN2cv8saliency14StaticSaliencyC2Ev(ptr noundef nonnull align 8 dereferenceable(8) %0, ptr noundef %1) unnamed_addr #5 comdat align 2 {
  %3 = alloca ptr, align 8
  %4 = alloca ptr, align 8
  store ptr %0, ptr %3, align 8
  store ptr %1, ptr %4, align 8
  %5 = load ptr, ptr %3, align 8
  %6 = load ptr, ptr %4, align 8
  %7 = load ptr, ptr %6, align 8
  store ptr %7, ptr %5, align 8
  %8 = getelementptr inbounds ptr, ptr %6, i64 1
  %9 = load ptr, ptr %8, align 8
  %10 = load ptr, ptr %5, align 8
  %11 = getelementptr i8, ptr %10, i64 -80
  %12 = load i64, ptr %11, align 8
  %13 = getelementptr inbounds i8, ptr %5, i64 %12
  store ptr %9, ptr %13, align 8
  %14 = getelementptr inbounds ptr, ptr %6, i64 2
  %15 = load ptr, ptr %14, align 8
  %16 = load ptr, ptr %5, align 8
  %17 = getelementptr i8, ptr %16, i64 -88
  %18 = load i64, ptr %17, align 8
  %19 = getelementptr inbounds i8, ptr %5, i64 %18
  store ptr %15, ptr %19, align 8
  ret void
}

; Function Attrs: mustprogress nounwind uwtable
define linkonce_odr hidden void @_ZN2cv8saliency8SaliencyC2Ev(ptr noundef nonnull align 8 dereferenceable(40) %0, ptr noundef %1) unnamed_addr #5 comdat align 2 {
  %3 = alloca ptr, align 8
  %4 = alloca ptr, align 8
  store ptr %0, ptr %3, align 8
  store ptr %1, ptr %4, align 8
  %5 = load ptr, ptr %3, align 8
  %6 = load ptr, ptr %4, align 8
  %7 = load ptr, ptr %6, align 8
  store ptr %7, ptr %5, align 8
  %8 = getelementptr inbounds ptr, ptr %6, i64 1
  %9 = load ptr, ptr %8, align 8
  %10 = load ptr, ptr %5, align 8
  %11 = getelementptr i8, ptr %10, i64 -80
  %12 = load i64, ptr %11, align 8
  %13 = getelementptr inbounds i8, ptr %5, i64 %12
  store ptr %9, ptr %13, align 8
  %14 = getelementptr inbounds %"class.cv::saliency::Saliency", ptr %5, i32 0, i32 1
  call void @_ZNSt7__cxx1112basic_stringIcSt11char_traitsIcESaIcEEC1Ev(ptr noundef nonnull align 8 dereferenceable(32) %14) #3
  ret void
}

; Function Attrs: mustprogress uwtable
define void @_ZN2cv8saliency30StaticSaliencySpectralResidualC1Ev(ptr noundef nonnull align 8 dereferenceable(16) %0) unnamed_addr #4 align 2 personality ptr @__gxx_personality_v0 {
  %2 = alloca ptr, align 8
  %3 = alloca ptr, align 8
  %4 = alloca i32, align 4
  store ptr %0, ptr %2, align 8
  %5 = load ptr, ptr %2, align 8
  call void @_ZN2cv9AlgorithmC2Ev(ptr noundef nonnull align 8 dereferenceable(8) %5)
  %6 = getelementptr inbounds i8, ptr %5, i64 16
  call void @_ZN2cv8saliency8SaliencyC2Ev(ptr noundef nonnull align 8 dereferenceable(40) %6, ptr noundef getelementptr inbounds ([8 x ptr], ptr @_ZTTN2cv8saliency30StaticSaliencySpectralResidualE, i64 0, i64 6)) #3
  call void @_ZN2cv8saliency14StaticSaliencyC2Ev(ptr noundef nonnull align 8 dereferenceable(8) %5, ptr noundef getelementptr inbounds ([8 x ptr], ptr @_ZTTN2cv8saliency30StaticSaliencySpectralResidualE, i64 0, i64 1)) #3
  store ptr getelementptr inbounds inrange(-88, 72) ({ [20 x ptr], [20 x ptr] }, ptr @_ZTVN2cv8saliency30StaticSaliencySpectralResidualE, i32 0, i32 0, i32 11), ptr %5, align 8
  %7 = getelementptr inbounds i8, ptr %5, i64 16
  store ptr getelementptr inbounds inrange(-88, 72) ({ [20 x ptr], [20 x ptr] }, ptr @_ZTVN2cv8saliency30StaticSaliencySpectralResidualE, i32 0, i32 1, i32 11), ptr %7, align 8
  store ptr getelementptr inbounds inrange(-88, 72) ({ [20 x ptr], [20 x ptr] }, ptr @_ZTVN2cv8saliency30StaticSaliencySpectralResidualE, i32 0, i32 0, i32 11), ptr %5, align 8
  %8 = load ptr, ptr %5, align 8
  %9 = getelementptr i8, ptr %8, i64 -80
  %10 = load i64, ptr %9, align 8
  %11 = getelementptr inbounds i8, ptr %5, i64 %10
  %12 = getelementptr inbounds %"class.cv::saliency::Saliency", ptr %11, i32 0, i32 1
  %13 = invoke noundef nonnull align 8 dereferenceable(32) ptr @_ZNSt7__cxx1112basic_stringIcSt11char_traitsIcESaIcEEaSEPKc(ptr noundef nonnull align 8 dereferenceable(32) %12, ptr noundef @.str)
          to label %14 unwind label %17

14:                                               ; preds = %1
  %15 = getelementptr inbounds %"class.cv::saliency::StaticSaliencySpectralResidual", ptr %5, i32 0, i32 1
  store i32 64, ptr %15, align 8
  %16 = getelementptr inbounds %"class.cv::saliency::StaticSaliencySpectralResidual", ptr %5, i32 0, i32 2
  store i32 64, ptr %16, align 4
  ret void

17:                                               ; preds = %1
  %18 = landingpad { ptr, i32 }
          cleanup
  %19 = extractvalue { ptr, i32 } %18, 0
  store ptr %19, ptr %3, align 8
  %20 = extractvalue { ptr, i32 } %18, 1
  store i32 %20, ptr %4, align 4
  call void @_ZN2cv8saliency14StaticSaliencyD2Ev(ptr noundef nonnull align 8 dereferenceable(8) %5, ptr noundef getelementptr inbounds ([8 x ptr], ptr @_ZTTN2cv8saliency30StaticSaliencySpectralResidualE, i64 0, i64 1)) #3
  %21 = getelementptr inbounds i8, ptr %5, i64 16
  call void @_ZN2cv8saliency8SaliencyD2Ev(ptr noundef nonnull align 8 dereferenceable(40) %21, ptr noundef getelementptr inbounds ([8 x ptr], ptr @_ZTTN2cv8saliency30StaticSaliencySpectralResidualE, i64 0, i64 6)) #3
  call void @_ZN2cv9AlgorithmD2Ev(ptr noundef nonnull align 8 dereferenceable(8) %5) #3
  br label %22

22:                                               ; preds = %17
  %23 = load ptr, ptr %3, align 8
  %24 = load i32, ptr %4, align 4
  %25 = insertvalue { ptr, i32 } poison, ptr %23, 0
  %26 = insertvalue { ptr, i32 } %25, i32 %24, 1
  resume { ptr, i32 } %26
}